target datalayout = "e-m:e-p270:32:32-p271:32:32-p272:64:64-i64:64-i128:128-f80:128-n8:16:32:64-S128"
target triple = "x86_64-pc-linux-gnu"

%"struct.std::_Rb_tree_header" = type { %"struct.std::_Rb_tree_node_base", i64 }
%"struct.std::_Rb_tree_node_base" = type { i32, ptr, ptr, ptr }
%"class.vcg::Point2" = type { [2 x i32] }
%class.AlignPairWidget = type <{ %class.QGLWidget, ptr, ptr, %"class.vcg::Trackball", %"class.vcg::Trackball", [2 x ptr], ptr, ptr, ptr, %"class.std::vector.25", %"class.std::vector.25", i8, i8, [2 x i8], %"class.vcg::Point2", i8, i8, i8, i8 }>
%class.QGLWidget = type { %class.QWidget }
%class.QWidget = type { %class.QObject, %class.QPaintDevice, ptr }
%class.QObject = type { ptr, %class.QScopedPointer }
%class.QScopedPointer = type { ptr }
%class.QPaintDevice = type { ptr, i16, ptr }
%"class.vcg::Trackball" = type <{ %"class.vcg::Transform", %"class.vcg::View", i32, ptr, ptr, ptr, %"class.std::map.17", %"class.vcg::Similarityf", %"class.vcg::Similarityf", %"class.vcg::Similarityf", %"class.vcg::Point3", [4 x i8], %"class.std::vector.25", i8, [3 x i8], i32, i32, %"class.vcg::Quaternion", i8, i8, [2 x i8], %"class.std::__cxx11::list", i32, i8, [3 x i8] }>
%"class.vcg::Transform" = type { %"class.vcg::Similarityf", %"class.vcg::Point3", float }
%"class.vcg::View" = type <{ %"class.vcg::Matrix44", %"class.vcg::Matrix44", %"class.vcg::Matrix44", %"class.vcg::Matrix44", [4 x i32], i8, [3 x i8] }>
%"class.vcg::Matrix44" = type { %"struct.std::array" }
%"struct.std::array" = type { [16 x float] }
%"class.std::map.17" = type { %"class.std::_Rb_tree.18" }
%"class.std::_Rb_tree.18" = type { %"struct.std::_Rb_tree<int, std::pair<const int, vcg::TrackMode *>, std::_Select1st<std::pair<const int, vcg::TrackMode *>>, std::less<int>>::_Rb_tree_impl" }
%"struct.std::_Rb_tree<int, std::pair<const int, vcg::TrackMode *>, std::_Select1st<std::pair<const int, vcg::TrackMode *>>, std::less<int>>::_Rb_tree_impl" = type { %"struct.std::_Rb_tree_key_compare.22", %"struct.std::_Rb_tree_header" }
%"struct.std::_Rb_tree_key_compare.22" = type { %"struct.std::less.23" }
%"struct.std::less.23" = type { i8 }
%"class.vcg::Similarityf" = type { %"class.vcg::Similarity" }
%"class.vcg::Similarity" = type { %"class.vcg::Quaternion", %"class.vcg::Point3", float }
%"class.vcg::Point3" = type { [3 x float] }
%"class.vcg::Quaternion" = type { %"class.vcg::Point4.16" }
%"class.vcg::Point4.16" = type { [4 x float] }
%"class.std::__cxx11::list" = type { %"class.std::__cxx11::_List_base" }
%"class.std::__cxx11::_List_base" = type { %"struct.std::__cxx11::_List_base<vcg::Transform, std::allocator<vcg::Transform>>::_List_impl" }
%"struct.std::__cxx11::_List_base<vcg::Transform, std::allocator<vcg::Transform>>::_List_impl" = type { %"struct.std::__detail::_List_node_header" }
%"struct.std::__detail::_List_node_header" = type { %"struct.std::__detail::_List_node_base", i64 }
%"struct.std::__detail::_List_node_base" = type { ptr, ptr }
%"class.std::vector.25" = type { %"struct.std::_Vector_base.26" }
%"struct.std::_Vector_base.26" = type { %"struct.std::_Vector_base<vcg::Point3<float>, std::allocator<vcg::Point3<float>>>::_Vector_impl" }
%"struct.std::_Vector_base<vcg::Point3<float>, std::allocator<vcg::Point3<float>>>::_Vector_impl" = type { %"struct.std::_Vector_base<vcg::Point3<float>, std::allocator<vcg::Point3<float>>>::_Vector_impl_data" }
%"struct.std::_Vector_base<vcg::Point3<float>, std::allocator<vcg::Point3<float>>>::_Vector_impl_data" = type { ptr, ptr, ptr }
%class.QString = type { ptr }
%class.QFlags.218 = type { i32 }
%class.QEvent = type <{ ptr, ptr, i16, i16, [4 x i8] }>
%class.QKeyEvent = type <{ %class.QInputEvent, %class.QString, i32, i32, i32, i32, i16, i8, [5 x i8] }>
%class.QInputEvent = type { %class.QEvent.base, %class.QFlags.218, i64 }
%class.QEvent.base = type <{ ptr, ptr, i16, i16 }>
%class.QFlag = type { i32 }

; Function Attrs: mustprogress nounwind uwtable
define linkonce_odr noundef i32 @_ZNK5QFlagcvjEv(ptr noundef nonnull align 4 dereferenceable(4) %0) #4 comdat align 2 {
  %2 = alloca ptr, align 8
  store ptr %0, ptr %2, align 8
  %3 = load ptr, ptr %2, align 8
  %4 = getelementptr inbounds %class.QFlag, ptr %3, i32 0, i32 0
  %5 = load i32, ptr %4, align 4
  ret i32 %5
}

; Function Attrs: mustprogress nounwind uwtable
define linkonce_odr void @_ZN6QFlagsIN2Qt16KeyboardModifierEEC2E5QFlag(ptr noundef nonnull align 4 dereferenceable(4) %0, i32 %1) unnamed_addr #4 comdat align 2 {
  %3 = alloca %class.QFlag, align 4
  %4 = alloca ptr, align 8
  %5 = getelementptr inbounds %class.QFlag, ptr %3, i32 0, i32 0
  store i32 %1, ptr %5, align 4
  store ptr %0, ptr %4, align 8
  %6 = load ptr, ptr %4, align 8
  %7 = getelementptr inbounds %class.QFlags.218, ptr %6, i32 0, i32 0
  %8 = call noundef i32 @_ZNK5QFlagcvjEv(ptr noundef nonnull align 4 dereferenceable(4) %3) #3
  store i32 %8, ptr %7, align 4
  ret void
}

; Function Attrs: mustprogress nounwind uwtable
define linkonce_odr void @_ZN5QFlagC2Ej(ptr noundef nonnull align 4 dereferenceable(4) %0, i32 noundef %1) unnamed_addr #4 comdat align 2 {
  %3 = alloca ptr, align 8
  %4 = alloca i32, align 4
  store ptr %0, ptr %3, align 8
  store i32 %1, ptr %4, align 4
  %5 = load ptr, ptr %3, align 8
  %6 = getelementptr inbounds %class.QFlag, ptr %5, i32 0, i32 0
  %7 = load i32, ptr %4, align 4
  store i32 %7, ptr %6, align 4
  ret void
}

; Function Attrs: mustprogress nounwind uwtable
define linkonce_odr noundef i32 @_ZNK6QFlagsIN2Qt16KeyboardModifierEEcvjEv(ptr noundef nonnull align 4 dereferenceable(4) %0) #4 comdat align 2 {
  %2 = alloca ptr, align 8
  store ptr %0, ptr %2, align 8
  %3 = load ptr, ptr %2, align 8
  %4 = getelementptr inbounds %class.QFlags.218, ptr %3, i32 0, i32 0
  %5 = load i32, ptr %4, align 4
  ret i32 %5
}

; Function Attrs: mustprogress nounwind uwtable
define linkonce_odr i32 @_ZNK6QFlagsIN2Qt16KeyboardModifierEEanES1_(ptr noundef nonnull align 4 dereferenceable(4) %0, i32 noundef %1) #4 comdat align 2 {
  %3 = alloca %class.QFlags.218, align 4
  %4 = alloca ptr, align 8
  %5 = alloca i32, align 4
  %6 = alloca %class.QFlag, align 4
  store ptr %0, ptr %4, align 8
  store i32 %1, ptr %5, align 4
  %7 = load ptr, ptr %4, align 8
  %8 = getelementptr inbounds %class.QFlags.218, ptr %7, i32 0, i32 0
  %9 = load i32, ptr %8, align 4
  %10 = load i32, ptr %5, align 4
  %11 = and i32 %9, %10
  call void @_ZN5QFlagC2Ej(ptr noundef nonnull align 4 dereferenceable(4) %6, i32 noundef %11) #3
  %12 = getelementptr inbounds %class.QFlag, ptr %6, i32 0, i32 0
  %13 = load i32, ptr %12, align 4
  call void @_ZN6QFlagsIN2Qt16KeyboardModifierEEC2E5QFlag(ptr noundef nonnull align 4 dereferenceable(4) %3, i32 %13) #3
  %14 = getelementptr inbounds %class.QFlags.218, ptr %3, i32 0, i32 0
  %15 = load i32, ptr %14, align 4
  ret i32 %15
}

; Function Attrs: mustprogress nounwind uwtable
define linkonce_odr noundef i32 @_Z6QT2VCGN2Qt11MouseButtonE6QFlagsINS_16KeyboardModifierEE(i32 noundef %0, i32 %1) #4 comdat {
  %3 = alloca %class.QFlags.218, align 4
  %4 = alloca i32, align 4
  %5 = alloca i32, align 4
  %6 = alloca %class.QFlags.218, align 4
  %7 = alloca %class.QFlags.218, align 4
  %8 = alloca %class.QFlags.218, align 4
  %9 = getelementptr inbounds %class.QFlags.218, ptr %3, i32 0, i32 0
  store i32 %1, ptr %9, align 4
  store i32 %0, ptr %4, align 4
  store i32 0, ptr %5, align 4
  %10 = load i32, ptr %4, align 4
  %11 = and i32 %10, 1
  %12 = icmp ne i32 %11, 0
  br i1 %12, label %13, label %16

13:                                               ; preds = %2
  %14 = load i32, ptr %5, align 4
  %15 = or i32 %14, 1
  store i32 %15, ptr %5, align 4
  br label %16

16:                                               ; preds = %13, %2
  %17 = load i32, ptr %4, align 4
  %18 = and i32 %17, 2
  %19 = icmp ne i32 %18, 0
  br i1 %19, label %20, label %23

20:                                               ; preds = %16
  %21 = load i32, ptr %5, align 4
  %22 = or i32 %21, 4
  store i32 %22, ptr %5, align 4
  br label %23

23:                                               ; preds = %20, %16
  %24 = load i32, ptr %4, align 4
  %25 = and i32 %24, 4
  %26 = icmp ne i32 %25, 0
  br i1 %26, label %27, label %30

27:                                               ; preds = %23
  %28 = load i32, ptr %5, align 4
  %29 = or i32 %28, 2
  store i32 %29, ptr %5, align 4
  br label %30

30:                                               ; preds = %27, %23
  %31 = call i32 @_ZNK6QFlagsIN2Qt16KeyboardModifierEEanES1_(ptr noundef nonnull align 4 dereferenceable(4) %3, i32 noundef 33554432) #3
  %32 = getelementptr inbounds %class.QFlags.218, ptr %6, i32 0, i32 0
  store i32 %31, ptr %32, align 4
  %33 = call noundef i32 @_ZNK6QFlagsIN2Qt16KeyboardModifierEEcvjEv(ptr noundef nonnull align 4 dereferenceable(4) %6) #3
  %34 = icmp ne i32 %33, 0
  br i1 %34, label %35, label %38

35:                                               ; preds = %30
  %36 = load i32, ptr %5, align 4
  %37 = or i32 %36, 16
  store i32 %37, ptr %5, align 4
  br label %38

38:                                               ; preds = %35, %30
  %39 = call i32 @_ZNK6QFlagsIN2Qt16KeyboardModifierEEanES1_(ptr noundef nonnull align 4 dereferenceable(4) %3, i32 noundef 67108864) #3
  %40 = getelementptr inbounds %class.QFlags.218, ptr %7, i32 0, i32 0
  store i32 %39, ptr %40, align 4
  %41 = call noundef i32 @_ZNK6QFlagsIN2Qt16KeyboardModifierEEcvjEv(ptr noundef nonnull align 4 dereferenceable(4) %7) #3
  %42 = icmp ne i32 %41, 0
  br i1 %42, label %43, label %46

43:                                               ; preds = %38
  %44 = load i32, ptr %5, align 4
  %45 = or i32 %44, 32
  store i32 %45, ptr %5, align 4
  br label %46

46:                                               ; preds = %43, %38
  %47 = call i32 @_ZNK6QFlagsIN2Qt16KeyboardModifierEEanES1_(ptr noundef nonnull align 4 dereferenceable(4) %3, i32 noundef 134217728) #3
  %48 = getelementptr inbounds %class.QFlags.218, ptr %8, i32 0, i32 0
  store i32 %47, ptr %48, align 4
  %49 = call noundef i32 @_ZNK6QFlagsIN2Qt16KeyboardModifierEEcvjEv(ptr noundef nonnull align 4 dereferenceable(4) %8) #3
  %50 = icmp ne i32 %49, 0
  br i1 %50, label %51, label %54

51:                                               ; preds = %46
  %52 = load i32, ptr %5, align 4
  %53 = or i32 %52, 64
  store i32 %53, ptr %5, align 4
  br label %54

54:                                               ; preds = %51, %46
  %55 = load i32, ptr %5, align 4
  ret i32 %55
}

; Function Attrs: mustprogress nounwind uwtable
define linkonce_odr void @_ZN6QFlagsIN2Qt16KeyboardModifierEEC2ES1_(ptr noundef nonnull align 4 dereferenceable(4) %0, i32 noundef %1) unnamed_addr #4 comdat align 2 {
  %3 = alloca ptr, align 8
  %4 = alloca i32, align 4
  store ptr %0, ptr %3, align 8
  store i32 %1, ptr %4, align 4
  %5 = load ptr, ptr %3, align 8
  %6 = getelementptr inbounds %class.QFlags.218, ptr %5, i32 0, i32 0
  %7 = load i32, ptr %4, align 4
  store i32 %7, ptr %6, align 4
  ret void
}

; Function Attrs: mustprogress nounwind uwtable
define linkonce_odr noundef i32 @_ZNK9QKeyEvent3keyEv(ptr noundef nonnull align 8 dereferenceable(59) %0) #4 comdat align 2 {
  %2 = alloca ptr, align 8
  store ptr %0, ptr %2, align 8
  %3 = load ptr, ptr %2, align 8
  %4 = getelementptr inbounds %class.QKeyEvent, ptr %3, i32 0, i32 2
  %5 = load i32, ptr %4, align 8
  ret i32 %5
}

; Function Attrs: mustprogress nounwind uwtable
define linkonce_odr void @_ZN6QEvent6ignoreEv(ptr noundef nonnull align 8 dereferenceable(20) %0) #4 comdat align 2 {
  %2 = alloca ptr, align 8
  store ptr %0, ptr %2, align 8
  %3 = load ptr, ptr %2, align 8
  %4 = getelementptr inbounds %class.QEvent, ptr %3, i32 0, i32 3
  %5 = load i16, ptr %4, align 2
  %6 = and i16 %5, -5
  %7 = or i16 %6, 0
  store i16 %7, ptr %4, align 2
  ret void
}

; Function Attrs: mustprogress uwtable
define void @_ZN15AlignPairWidget13keyPressEventEP9QKeyEvent(ptr noundef nonnull align 8 dereferenceable(1367) %0, ptr noundef %1) unnamed_addr #5 align 2 {
  %3 = alloca ptr, align 8
  %4 = alloca ptr, align 8
  %5 = alloca i32, align 4
  %6 = alloca %class.QFlags.218, align 4
  %7 = alloca %class.QFlags.218, align 4
  %8 = alloca %class.QFlags.218, align 4
  store ptr %0, ptr %3, align 8
  store ptr %1, ptr %4, align 8
  %9 = load ptr, ptr %3, align 8
  %10 = load ptr, ptr %4, align 8
  call void @_ZN6QEvent6ignoreEv(ptr noundef nonnull align 8 dereferenceable(20) %10)
  store i32 0, ptr %5, align 4
  br label %11

11:                                               ; preds = %54, %2
  %12 = load i32, ptr %5, align 4
  %13 = icmp slt i32 %12, 2
  br i1 %13, label %14, label %57

14:                                               ; preds = %11
  %15 = load ptr, ptr %4, align 8
  %16 = call noundef i32 @_ZNK9QKeyEvent3keyEv(ptr noundef nonnull align 8 dereferenceable(59) %15)
  %17 = icmp eq i32 %16, 16777249
  br i1 %17, label %18, label %27

18:                                               ; preds = %14
  %19 = getelementptr inbounds %class.AlignPairWidget, ptr %9, i32 0, i32 5
  %20 = load i32, ptr %5, align 4
  %21 = sext i32 %20 to i64
  %22 = getelementptr inbounds [2 x ptr], ptr %19, i64 0, i64 %21
  %23 = load ptr, ptr %22, align 8
  call void @_ZN6QFlagsIN2Qt16KeyboardModifierEEC2ES1_(ptr noundef nonnull align 4 dereferenceable(4) %6, i32 noundef 67108864) #3
  %24 = getelementptr inbounds %class.QFlags.218, ptr %6, i32 0, i32 0
  %25 = load i32, ptr %24, align 4
  %26 = call noundef i32 @_Z6QT2VCGN2Qt11MouseButtonE6QFlagsINS_16KeyboardModifierEE(i32 noundef 0, i32 %25)
  call void @_ZN3vcg9Trackball10ButtonDownENS0_6ButtonEj(ptr noundef nonnull align 8 dereferenceable(597) %23, i32 noundef %26, i32 noundef 0)
  br label %27

27:                                               ; preds = %18, %14
  %28 = load ptr, ptr %4, align 8
  %29 = call noundef i32 @_ZNK9QKeyEvent3keyEv(ptr noundef nonnull align 8 dereferenceable(59) %28)
  %30 = icmp eq i32 %29, 16777248
  br i1 %30, label %31, label %40

31:                                               ; preds = %27
  %32 = getelementptr inbounds %class.AlignPairWidget, ptr %9, i32 0, i32 5
  %33 = load i32, ptr %5, align 4
  %34 = sext i32 %33 to i64
  %35 = getelementptr inbounds [2 x ptr], ptr %32, i64 0, i64 %34
  %36 = load ptr, ptr %35, align 8
  call void @_ZN6QFlagsIN2Qt16KeyboardModifierEEC2ES1_(ptr noundef nonnull align 4 dereferenceable(4) %7, i32 noundef 33554432) #3
  %37 = getelementptr inbounds %class.QFlags.218, ptr %7, i32 0, i32 0
  %38 = load i32, ptr %37, align 4
  %39 = call noundef i32 @_Z6QT2VCGN2Qt11MouseButtonE6QFlagsINS_16KeyboardModifierEE(i32 noundef 0, i32 %38)
  call void @_ZN3vcg9Trackball10ButtonDownENS0_6ButtonEj(ptr noundef nonnull align 8 dereferenceable(597) %36, i32 noundef %39, i32 noundef 0)
  br label %40

40:                                               ; preds = %31, %27
  %41 = load ptr, ptr %4, align 8
  %42 = call noundef i32 @_ZNK9QKeyEvent3keyEv(ptr noundef nonnull align 8 dereferenceable(59) %41)
  %43 = icmp eq i32 %42, 16777251
  br i1 %43, label %44, label %53

44:                                               ; preds = %40
  %45 = getelementptr inbounds %class.AlignPairWidget, ptr %9, i32 0, i32 5
  %46 = load i32, ptr %5, align 4
  %47 = sext i32 %46 to i64
  %48 = getelementptr inbounds [2 x ptr], ptr %45, i64 0, i64 %47
  %49 = load ptr, ptr %48, align 8
  call void @_ZN6QFlagsIN2Qt16KeyboardModifierEEC2ES1_(ptr noundef nonnull align 4 dereferenceable(4) %8, i32 noundef 134217728) #3
  %50 = getelementptr inbounds %class.QFlags.218, ptr %8, i32 0, i32 0
  %51 = load i32, ptr %50, align 4
  %52 = call noundef i32 @_Z6QT2VCGN2Qt11MouseButtonE6QFlagsINS_16KeyboardModifierEE(i32 noundef 0, i32 %51)
  call void @_ZN3vcg9Trackball10ButtonDownENS0_6ButtonEj(ptr noundef nonnull align 8 dereferenceable(597) %49, i32 noundef %52, i32 noundef 0)
  br label %53

53:                                               ; preds = %44, %40
  br label %54

54:                                               ; preds = %53
  %55 = load i32, ptr %5, align 4
  %56 = add nsw i32 %55, 1
  store i32 %56, ptr %5, align 4
  br label %11, !llvm.loop !21

57:                                               ; preds = %11
  call void @_ZN7QWidget6updateEv(ptr noundef nonnull align 8 dereferenceable(48) %9)
  ret void
}